TN:
SF:/home/user/Documents/Widerstandsteiler/Test/Test.cpp
FN:10,_ZN18Ecalc_E3Reihe_TestC2Ev
FN:10,_ZN18Ecalc_E3Reihe_Test8TestBodyEv
FN:10,_ZN18Ecalc_E3Reihe_TestD0Ev
FN:10,_ZN18Ecalc_E3Reihe_TestD2Ev
FN:21,_ZN18Ecalc_E6Reihe_Test8TestBodyEv
FN:21,_ZN18Ecalc_E6Reihe_TestD0Ev
FN:21,_ZN18Ecalc_E6Reihe_TestD2Ev
FN:21,_ZN18Ecalc_E6Reihe_TestC2Ev
FN:32,_ZN19Ecalc_E12Reihe_TestC2Ev
FN:32,_ZN19Ecalc_E12Reihe_TestD2Ev
FN:32,_ZN19Ecalc_E12Reihe_Test8TestBodyEv
FN:32,_ZN19Ecalc_E12Reihe_TestD0Ev
FN:43,_ZN19Ecalc_E24Reihe_Test8TestBodyEv
FN:43,_ZN19Ecalc_E24Reihe_TestC2Ev
FN:43,_ZN19Ecalc_E24Reihe_TestD0Ev
FN:43,_ZN19Ecalc_E24Reihe_TestD2Ev
FN:54,_ZN19Ecalc_E48Reihe_Test8TestBodyEv
FN:54,_ZN19Ecalc_E48Reihe_TestD2Ev
FN:54,_ZN19Ecalc_E48Reihe_TestD0Ev
FN:54,_ZN19Ecalc_E48Reihe_TestC2Ev
FN:65,_ZN19Ecalc_E96Reihe_TestD2Ev
FN:65,_ZN19Ecalc_E96Reihe_TestD0Ev
FN:65,_ZN19Ecalc_E96Reihe_TestC2Ev
FN:65,_ZN19Ecalc_E96Reihe_Test8TestBodyEv
FN:76,_ZN20Ecalc_E192Reihe_TestD2Ev
FN:76,_ZN20Ecalc_E192Reihe_Test8TestBodyEv
FN:76,_ZN20Ecalc_E192Reihe_TestD0Ev
FN:76,_ZN20Ecalc_E192Reihe_TestC2Ev
FN:97,_ZN25Ecalc_UoutgreaterUin_TestC2Ev
FN:97,_ZN25Ecalc_UoutgreaterUin_Test8TestBodyEv
FN:97,_ZN25Ecalc_UoutgreaterUin_TestD2Ev
FN:97,_ZN25Ecalc_UoutgreaterUin_TestD0Ev
FN:102,_ZN21Ecalc_UinNegativ_Test8TestBodyEv
FN:102,_ZN21Ecalc_UinNegativ_TestC2Ev
FN:102,_ZN21Ecalc_UinNegativ_TestD2Ev
FN:102,_ZN21Ecalc_UinNegativ_TestD0Ev
FN:107,_ZN22Ecalc_UoutNegativ_TestC2Ev
FN:107,_ZN22Ecalc_UoutNegativ_TestD2Ev
FN:107,_ZN22Ecalc_UoutNegativ_TestD0Ev
FN:107,_ZN22Ecalc_UoutNegativ_Test8TestBodyEv
FN:112,_ZN28Ecalc_UinANDUoutNegativ_TestD0Ev
FN:112,_ZN28Ecalc_UinANDUoutNegativ_TestC2Ev
FN:112,_ZN28Ecalc_UinANDUoutNegativ_Test8TestBodyEv
FN:112,_ZN28Ecalc_UinANDUoutNegativ_TestD2Ev
FN:117,_ZN30Ecalc_UinANDUoutequalZero_TestD2Ev
FN:117,_ZN30Ecalc_UinANDUoutequalZero_TestC2Ev
FN:117,_ZN30Ecalc_UinANDUoutequalZero_Test8TestBodyEv
FN:117,_ZN30Ecalc_UinANDUoutequalZero_TestD0Ev
FN:122,_ZN33Ecalc_UinDIFFUoutgreater4700_TestC2Ev
FN:122,_ZN33Ecalc_UinDIFFUoutgreater4700_TestD0Ev
FN:122,_ZN33Ecalc_UinDIFFUoutgreater4700_Test8TestBodyEv
FN:122,_ZN33Ecalc_UinDIFFUoutgreater4700_TestD2Ev
FN:129,main
FN:134,_Z41__static_initialization_and_destruction_0ii
FN:134,_GLOBAL__sub_I_Test.cpp
FNDA:1,_ZN22Ecalc_UoutNegativ_TestC2Ev
FNDA:1,_ZN30Ecalc_UinANDUoutequalZero_TestC2Ev
FNDA:1,_ZN19Ecalc_E24Reihe_Test8TestBodyEv
FNDA:1,_ZN18Ecalc_E6Reihe_TestD0Ev
FNDA:1,_ZN19Ecalc_E48Reihe_Test8TestBodyEv
FNDA:1,_ZN18Ecalc_E3Reihe_TestC2Ev
FNDA:1,_ZN33Ecalc_UinDIFFUoutgreater4700_TestC2Ev
FNDA:1,_ZN18Ecalc_E6Reihe_Test8TestBodyEv
FNDA:1,_ZN30Ecalc_UinANDUoutequalZero_TestD2Ev
FNDA:1,_ZN19Ecalc_E96Reihe_TestD2Ev
FNDA:1,_ZN19Ecalc_E48Reihe_TestD2Ev
FNDA:1,_ZN19Ecalc_E96Reihe_TestC2Ev
FNDA:1,_ZN22Ecalc_UoutNegativ_TestD2Ev
FNDA:1,_ZN19Ecalc_E96Reihe_TestD0Ev
FNDA:1,_ZN20Ecalc_E192Reihe_TestD2Ev
FNDA:1,main
FNDA:1,_ZN28Ecalc_UinANDUoutNegativ_TestD0Ev
FNDA:1,_ZN19Ecalc_E24Reihe_TestC2Ev
FNDA:1,_ZN19Ecalc_E96Reihe_Test8TestBodyEv
FNDA:1,_ZN28Ecalc_UinANDUoutNegativ_Test8TestBodyEv
FNDA:1,_ZN25Ecalc_UoutgreaterUin_TestD2Ev
FNDA:1,_GLOBAL__sub_I_Test.cpp
FNDA:1,_ZN33Ecalc_UinDIFFUoutgreater4700_TestD2Ev
FNDA:1,_ZN18Ecalc_E3Reihe_TestD0Ev
FNDA:1,_Z41__static_initialization_and_destruction_0ii
FNDA:1,_ZN19Ecalc_E48Reihe_TestD0Ev
FNDA:1,_ZN20Ecalc_E192Reihe_TestC2Ev
FNDA:1,_ZN21Ecalc_UinNegativ_Test8TestBodyEv
FNDA:1,_ZN25Ecalc_UoutgreaterUin_Test8TestBodyEv
FNDA:1,_ZN18Ecalc_E6Reihe_TestD2Ev
FNDA:1,_ZN19Ecalc_E12Reihe_TestD2Ev
FNDA:1,_ZN20Ecalc_E192Reihe_TestD0Ev
FNDA:1,_ZN19Ecalc_E12Reihe_TestC2Ev
FNDA:1,_ZN18Ecalc_E3Reihe_Test8TestBodyEv
FNDA:1,_ZN33Ecalc_UinDIFFUoutgreater4700_Test8TestBodyEv
FNDA:1,_ZN25Ecalc_UoutgreaterUin_TestC2Ev
FNDA:1,_ZN33Ecalc_UinDIFFUoutgreater4700_TestD0Ev
FNDA:1,_ZN20Ecalc_E192Reihe_Test8TestBodyEv
FNDA:1,_ZN28Ecalc_UinANDUoutNegativ_TestC2Ev
FNDA:1,_ZN25Ecalc_UoutgreaterUin_TestD0Ev
FNDA:1,_ZN19Ecalc_E24Reihe_TestD2Ev
FNDA:1,_ZN18Ecalc_E6Reihe_TestC2Ev
FNDA:1,_ZN22Ecalc_UoutNegativ_Test8TestBodyEv
FNDA:1,_ZN19Ecalc_E24Reihe_TestD0Ev
FNDA:1,_ZN19Ecalc_E12Reihe_Test8TestBodyEv
FNDA:1,_ZN19Ecalc_E12Reihe_TestD0Ev
FNDA:1,_ZN30Ecalc_UinANDUoutequalZero_TestD0Ev
FNDA:1,_ZN18Ecalc_E3Reihe_TestD2Ev
FNDA:1,_ZN19Ecalc_E48Reihe_TestC2Ev
FNDA:1,_ZN21Ecalc_UinNegativ_TestD2Ev
FNDA:1,_ZN21Ecalc_UinNegativ_TestD0Ev
FNDA:1,_ZN22Ecalc_UoutNegativ_TestD0Ev
FNDA:1,_ZN21Ecalc_UinNegativ_TestC2Ev
FNDA:1,_ZN28Ecalc_UinANDUoutNegativ_TestD2Ev
FNDA:1,_ZN30Ecalc_UinANDUoutequalZero_Test8TestBodyEv
FNF:55
FNH:55
DA:10,5
DA:12,1
DA:13,1
DA:15,1
DA:16,1
DA:17,1
DA:18,1
DA:21,5
DA:23,1
DA:24,1
DA:26,1
DA:27,1
DA:28,1
DA:29,1
DA:32,5
DA:34,1
DA:35,1
DA:37,1
DA:38,1
DA:39,1
DA:40,1
DA:43,5
DA:45,1
DA:46,1
DA:48,1
DA:49,1
DA:50,1
DA:51,1
DA:54,5
DA:56,1
DA:57,1
DA:59,1
DA:60,1
DA:61,1
DA:62,1
DA:65,5
DA:67,1
DA:68,1
DA:70,1
DA:71,1
DA:72,1
DA:73,1
DA:76,5
DA:78,1
DA:79,1
DA:81,1
DA:82,1
DA:83,1
DA:84,1
DA:97,5
DA:98,1
DA:99,1
DA:102,5
DA:103,1
DA:104,1
DA:107,5
DA:108,1
DA:109,1
DA:112,5
DA:113,1
DA:114,1
DA:117,5
DA:118,1
DA:119,1
DA:122,5
DA:123,1
DA:124,1
DA:129,1
DA:132,1
DA:133,1
DA:134,3
LF:71
LH:71
end_of_record
TN:
SF:/home/user/Documents/Widerstandsteiler/algorithm/Ecalc.cpp
FN:7,_ZN5EcalcC2Ev
FN:11,_ZN5Ecalc9calculateEdddd
FN:22,_ZN5Ecalc12getResistor1Ev
FN:27,_ZN5Ecalc12getResistor2Ev
FN:32,_ZN5Ecalc9getOutputEv
FN:37,_ZN5Ecalc11getErrorABSEv
FN:42,_ZN5Ecalc11getErrorRelEv
FN:47,_ZN5Ecalc4calcEv
FN:83,_ZN5Ecalc4getREi
FNDA:7,_ZN5Ecalc11getErrorABSEv
FNDA:13,_ZN5EcalcC2Ev
FNDA:13,_ZN5Ecalc4calcEv
FNDA:2361922,_ZN5Ecalc4getREi
FNDA:7,_ZN5Ecalc12getResistor2Ev
FNDA:21,_ZN5Ecalc9getOutputEv
FNDA:13,_ZN5Ecalc9calculateEdddd
FNDA:7,_ZN5Ecalc12getResistor1Ev
FNDA:7,_ZN5Ecalc11getErrorRelEv
FNF:9
FNH:9
DA:7,13
DA:9,13
DA:11,13
DA:13,13
DA:14,13
DA:15,13
DA:16,13
DA:17,13
DA:19,13
DA:22,7
DA:24,7
DA:27,7
DA:29,7
DA:32,21
DA:34,21
DA:37,7
DA:39,7
DA:42,7
DA:44,7
DA:47,13
DA:49,13
DA:51,13
DA:56,13
DA:58,412
DA:60,49602
DA:62,246015
DA:64,984060
DA:66,787248
DA:67,787248
DA:68,787248
DA:70,89
DA:71,89
DA:72,89
DA:78,13
DA:79,13
DA:80,13
DA:81,13
DA:83,2361922
DA:85,2361922
DA:86,2361922
DA:88,3042
DA:89,3042
DA:91,1734
DA:92,1734
DA:94,6922
DA:95,6922
DA:97,27676
DA:98,27676
DA:100,110626
DA:101,110626
DA:103,442410
DA:104,442410
DA:106,1769512
DA:107,1769512
DA:110,0
LF:55
LH:54
end_of_record
